; Function Attrs: nounwind sspstrong uwtable
define internal i64 @ossl_x509stctx_alloc(i64 noundef %0) #0 {
  %2 = tail call i64 @rb_data_typed_object_wrap(i64 noundef %0, ptr noundef null, ptr noundef nonnull @ossl_x509stctx_type) #5
  %3 = tail call ptr @X509_STORE_CTX_new() #5
  %4 = icmp eq ptr %3, null
  br i1 %4, label %5, label %7

5:                                                ; preds = %1
  %6 = load i64, ptr @eX509StoreError, align 8, !tbaa !20
  tail call void (i64, ptr, ...) @ossl_raise(i64 noundef %6, ptr noundef nonnull @.str.50) #7
  unreachable

7:                                                ; preds = %1
  %8 = inttoptr i64 %2 to ptr
  %9 = getelementptr inbounds nuw i8, ptr %8, i64 32
  store ptr %3, ptr %9, align 8, !tbaa !15
  ret i64 %2
}